ARM GAS  C:\Users\sheld\AppData\Local\Temp\ccyL9JRa.s 			page 1


   1              		.cpu cortex-m7
   2              		.arch armv7e-m
   3              		.fpu fpv4-sp-d16
   4              		.eabi_attribute 27, 1
   5              		.eabi_attribute 28, 1
   6              		.eabi_attribute 20, 1
   7              		.eabi_attribute 21, 1
   8              		.eabi_attribute 23, 3
   9              		.eabi_attribute 24, 1
  10              		.eabi_attribute 25, 1
  11              		.eabi_attribute 26, 1
  12              		.eabi_attribute 30, 1
  13              		.eabi_attribute 34, 1
  14              		.eabi_attribute 18, 4
  15              		.file	"stm32h7xx_hal_mmc_ex.c"
  16              		.text
  17              	.Ltext0:
  18              		.cfi_sections	.debug_frame
  19              		.section	.text.HAL_MMCEx_ConfigDMAMultiBuffer,"ax",%progbits
  20              		.align	1
  21              		.global	HAL_MMCEx_ConfigDMAMultiBuffer
  22              		.syntax unified
  23              		.thumb
  24              		.thumb_func
  26              	HAL_MMCEx_ConfigDMAMultiBuffer:
  27              	.LVL0:
  28              	.LFB132:
  29              		.file 1 "../../Drivers/STM32H7xx_HAL_Driver/Src/stm32h7xx_hal_mmc_ex.c"
   1:../../Drivers/STM32H7xx_HAL_Driver/Src/stm32h7xx_hal_mmc_ex.c **** /**
   2:../../Drivers/STM32H7xx_HAL_Driver/Src/stm32h7xx_hal_mmc_ex.c ****   ******************************************************************************
   3:../../Drivers/STM32H7xx_HAL_Driver/Src/stm32h7xx_hal_mmc_ex.c ****   * @file    stm32h7xx_hal_mmc_ex.c
   4:../../Drivers/STM32H7xx_HAL_Driver/Src/stm32h7xx_hal_mmc_ex.c ****   * @author  MCD Application Team
   5:../../Drivers/STM32H7xx_HAL_Driver/Src/stm32h7xx_hal_mmc_ex.c ****   * @brief   MMC card Extended HAL module driver.
   6:../../Drivers/STM32H7xx_HAL_Driver/Src/stm32h7xx_hal_mmc_ex.c ****   *          This file provides firmware functions to manage the following
   7:../../Drivers/STM32H7xx_HAL_Driver/Src/stm32h7xx_hal_mmc_ex.c ****   *          functionalities of the Secure Digital (MMC) peripheral:
   8:../../Drivers/STM32H7xx_HAL_Driver/Src/stm32h7xx_hal_mmc_ex.c ****   *           + Extended features functions
   9:../../Drivers/STM32H7xx_HAL_Driver/Src/stm32h7xx_hal_mmc_ex.c ****   *
  10:../../Drivers/STM32H7xx_HAL_Driver/Src/stm32h7xx_hal_mmc_ex.c ****   ******************************************************************************
  11:../../Drivers/STM32H7xx_HAL_Driver/Src/stm32h7xx_hal_mmc_ex.c ****   * @attention
  12:../../Drivers/STM32H7xx_HAL_Driver/Src/stm32h7xx_hal_mmc_ex.c ****   *
  13:../../Drivers/STM32H7xx_HAL_Driver/Src/stm32h7xx_hal_mmc_ex.c ****   * Copyright (c) 2017 STMicroelectronics.
  14:../../Drivers/STM32H7xx_HAL_Driver/Src/stm32h7xx_hal_mmc_ex.c ****   * All rights reserved.
  15:../../Drivers/STM32H7xx_HAL_Driver/Src/stm32h7xx_hal_mmc_ex.c ****   *
  16:../../Drivers/STM32H7xx_HAL_Driver/Src/stm32h7xx_hal_mmc_ex.c ****   * This software is licensed under terms that can be found in the LICENSE file
  17:../../Drivers/STM32H7xx_HAL_Driver/Src/stm32h7xx_hal_mmc_ex.c ****   * in the root directory of this software component.
  18:../../Drivers/STM32H7xx_HAL_Driver/Src/stm32h7xx_hal_mmc_ex.c ****   * If no LICENSE file comes with this software, it is provided AS-IS.
  19:../../Drivers/STM32H7xx_HAL_Driver/Src/stm32h7xx_hal_mmc_ex.c ****   *
  20:../../Drivers/STM32H7xx_HAL_Driver/Src/stm32h7xx_hal_mmc_ex.c ****   ******************************************************************************
  21:../../Drivers/STM32H7xx_HAL_Driver/Src/stm32h7xx_hal_mmc_ex.c ****   @verbatim
  22:../../Drivers/STM32H7xx_HAL_Driver/Src/stm32h7xx_hal_mmc_ex.c ****   ==============================================================================
  23:../../Drivers/STM32H7xx_HAL_Driver/Src/stm32h7xx_hal_mmc_ex.c ****                         ##### How to use this driver #####
  24:../../Drivers/STM32H7xx_HAL_Driver/Src/stm32h7xx_hal_mmc_ex.c ****   ==============================================================================
  25:../../Drivers/STM32H7xx_HAL_Driver/Src/stm32h7xx_hal_mmc_ex.c ****   [..]
  26:../../Drivers/STM32H7xx_HAL_Driver/Src/stm32h7xx_hal_mmc_ex.c ****    The MMC Extension HAL driver can be used as follows:
  27:../../Drivers/STM32H7xx_HAL_Driver/Src/stm32h7xx_hal_mmc_ex.c ****    (+) Configure Buffer0 and Buffer1 start address and Buffer size using HAL_MMCEx_ConfigDMAMultiBu
  28:../../Drivers/STM32H7xx_HAL_Driver/Src/stm32h7xx_hal_mmc_ex.c **** 
  29:../../Drivers/STM32H7xx_HAL_Driver/Src/stm32h7xx_hal_mmc_ex.c ****    (+) Start Read and Write for multibuffer mode using HAL_MMCEx_ReadBlocksDMAMultiBuffer() and
ARM GAS  C:\Users\sheld\AppData\Local\Temp\ccyL9JRa.s 			page 2


  30:../../Drivers/STM32H7xx_HAL_Driver/Src/stm32h7xx_hal_mmc_ex.c ****        HAL_MMCEx_WriteBlocksDMAMultiBuffer() functions.
  31:../../Drivers/STM32H7xx_HAL_Driver/Src/stm32h7xx_hal_mmc_ex.c **** 
  32:../../Drivers/STM32H7xx_HAL_Driver/Src/stm32h7xx_hal_mmc_ex.c ****   @endverbatim
  33:../../Drivers/STM32H7xx_HAL_Driver/Src/stm32h7xx_hal_mmc_ex.c ****   ******************************************************************************
  34:../../Drivers/STM32H7xx_HAL_Driver/Src/stm32h7xx_hal_mmc_ex.c ****   */
  35:../../Drivers/STM32H7xx_HAL_Driver/Src/stm32h7xx_hal_mmc_ex.c **** 
  36:../../Drivers/STM32H7xx_HAL_Driver/Src/stm32h7xx_hal_mmc_ex.c **** /* Includes ------------------------------------------------------------------*/
  37:../../Drivers/STM32H7xx_HAL_Driver/Src/stm32h7xx_hal_mmc_ex.c **** #include "stm32h7xx_hal.h"
  38:../../Drivers/STM32H7xx_HAL_Driver/Src/stm32h7xx_hal_mmc_ex.c **** 
  39:../../Drivers/STM32H7xx_HAL_Driver/Src/stm32h7xx_hal_mmc_ex.c **** /** @addtogroup STM32H7xx_HAL_Driver
  40:../../Drivers/STM32H7xx_HAL_Driver/Src/stm32h7xx_hal_mmc_ex.c ****   * @{
  41:../../Drivers/STM32H7xx_HAL_Driver/Src/stm32h7xx_hal_mmc_ex.c ****   */
  42:../../Drivers/STM32H7xx_HAL_Driver/Src/stm32h7xx_hal_mmc_ex.c **** 
  43:../../Drivers/STM32H7xx_HAL_Driver/Src/stm32h7xx_hal_mmc_ex.c **** /** @defgroup MMCEx MMCEx
  44:../../Drivers/STM32H7xx_HAL_Driver/Src/stm32h7xx_hal_mmc_ex.c ****   * @brief MMC Extended HAL module driver
  45:../../Drivers/STM32H7xx_HAL_Driver/Src/stm32h7xx_hal_mmc_ex.c ****   * @{
  46:../../Drivers/STM32H7xx_HAL_Driver/Src/stm32h7xx_hal_mmc_ex.c ****   */
  47:../../Drivers/STM32H7xx_HAL_Driver/Src/stm32h7xx_hal_mmc_ex.c **** 
  48:../../Drivers/STM32H7xx_HAL_Driver/Src/stm32h7xx_hal_mmc_ex.c **** #ifdef HAL_MMC_MODULE_ENABLED
  49:../../Drivers/STM32H7xx_HAL_Driver/Src/stm32h7xx_hal_mmc_ex.c **** 
  50:../../Drivers/STM32H7xx_HAL_Driver/Src/stm32h7xx_hal_mmc_ex.c **** /* Private typedef -----------------------------------------------------------*/
  51:../../Drivers/STM32H7xx_HAL_Driver/Src/stm32h7xx_hal_mmc_ex.c **** /* Private define ------------------------------------------------------------*/
  52:../../Drivers/STM32H7xx_HAL_Driver/Src/stm32h7xx_hal_mmc_ex.c **** /* Private macro -------------------------------------------------------------*/
  53:../../Drivers/STM32H7xx_HAL_Driver/Src/stm32h7xx_hal_mmc_ex.c **** /* Private variables ---------------------------------------------------------*/
  54:../../Drivers/STM32H7xx_HAL_Driver/Src/stm32h7xx_hal_mmc_ex.c **** /* Private function prototypes -----------------------------------------------*/
  55:../../Drivers/STM32H7xx_HAL_Driver/Src/stm32h7xx_hal_mmc_ex.c **** /* Private functions ---------------------------------------------------------*/
  56:../../Drivers/STM32H7xx_HAL_Driver/Src/stm32h7xx_hal_mmc_ex.c **** /* Exported functions --------------------------------------------------------*/
  57:../../Drivers/STM32H7xx_HAL_Driver/Src/stm32h7xx_hal_mmc_ex.c **** /** @addtogroup MMCEx_Exported_Functions
  58:../../Drivers/STM32H7xx_HAL_Driver/Src/stm32h7xx_hal_mmc_ex.c ****   * @{
  59:../../Drivers/STM32H7xx_HAL_Driver/Src/stm32h7xx_hal_mmc_ex.c ****   */
  60:../../Drivers/STM32H7xx_HAL_Driver/Src/stm32h7xx_hal_mmc_ex.c **** 
  61:../../Drivers/STM32H7xx_HAL_Driver/Src/stm32h7xx_hal_mmc_ex.c **** 
  62:../../Drivers/STM32H7xx_HAL_Driver/Src/stm32h7xx_hal_mmc_ex.c **** 
  63:../../Drivers/STM32H7xx_HAL_Driver/Src/stm32h7xx_hal_mmc_ex.c **** /** @addtogroup MMCEx_Exported_Functions_Group1
  64:../../Drivers/STM32H7xx_HAL_Driver/Src/stm32h7xx_hal_mmc_ex.c ****   *  @brief   Multibuffer functions
  65:../../Drivers/STM32H7xx_HAL_Driver/Src/stm32h7xx_hal_mmc_ex.c ****   *
  66:../../Drivers/STM32H7xx_HAL_Driver/Src/stm32h7xx_hal_mmc_ex.c **** @verbatim
  67:../../Drivers/STM32H7xx_HAL_Driver/Src/stm32h7xx_hal_mmc_ex.c ****   ==============================================================================
  68:../../Drivers/STM32H7xx_HAL_Driver/Src/stm32h7xx_hal_mmc_ex.c ****           ##### Multibuffer functions #####
  69:../../Drivers/STM32H7xx_HAL_Driver/Src/stm32h7xx_hal_mmc_ex.c ****   ==============================================================================
  70:../../Drivers/STM32H7xx_HAL_Driver/Src/stm32h7xx_hal_mmc_ex.c ****   [..]
  71:../../Drivers/STM32H7xx_HAL_Driver/Src/stm32h7xx_hal_mmc_ex.c ****     This section provides functions allowing to configure the multibuffer mode and start read and w
  72:../../Drivers/STM32H7xx_HAL_Driver/Src/stm32h7xx_hal_mmc_ex.c ****     multibuffer mode for MMC HAL driver.
  73:../../Drivers/STM32H7xx_HAL_Driver/Src/stm32h7xx_hal_mmc_ex.c **** 
  74:../../Drivers/STM32H7xx_HAL_Driver/Src/stm32h7xx_hal_mmc_ex.c **** @endverbatim
  75:../../Drivers/STM32H7xx_HAL_Driver/Src/stm32h7xx_hal_mmc_ex.c ****   * @{
  76:../../Drivers/STM32H7xx_HAL_Driver/Src/stm32h7xx_hal_mmc_ex.c ****   */
  77:../../Drivers/STM32H7xx_HAL_Driver/Src/stm32h7xx_hal_mmc_ex.c **** 
  78:../../Drivers/STM32H7xx_HAL_Driver/Src/stm32h7xx_hal_mmc_ex.c **** /**
  79:../../Drivers/STM32H7xx_HAL_Driver/Src/stm32h7xx_hal_mmc_ex.c ****   * @brief  Configure DMA Dual Buffer mode. The Data transfer is managed by an Internal DMA.
  80:../../Drivers/STM32H7xx_HAL_Driver/Src/stm32h7xx_hal_mmc_ex.c ****   * @param  hmmc: MMC handle
  81:../../Drivers/STM32H7xx_HAL_Driver/Src/stm32h7xx_hal_mmc_ex.c ****   * @param  pDataBuffer0: Pointer to the buffer0 that will contain/receive the transferred data
  82:../../Drivers/STM32H7xx_HAL_Driver/Src/stm32h7xx_hal_mmc_ex.c ****   * @param  pDataBuffer1: Pointer to the buffer1 that will contain/receive the transferred data
  83:../../Drivers/STM32H7xx_HAL_Driver/Src/stm32h7xx_hal_mmc_ex.c ****   * @param  BufferSize: Size of Buffer0 in Blocks. Buffer0 and Buffer1 must have the same size.
  84:../../Drivers/STM32H7xx_HAL_Driver/Src/stm32h7xx_hal_mmc_ex.c ****   * @retval HAL status
  85:../../Drivers/STM32H7xx_HAL_Driver/Src/stm32h7xx_hal_mmc_ex.c ****   */
  86:../../Drivers/STM32H7xx_HAL_Driver/Src/stm32h7xx_hal_mmc_ex.c **** HAL_StatusTypeDef HAL_MMCEx_ConfigDMAMultiBuffer(MMC_HandleTypeDef *hmmc, uint32_t *pDataBuffer0,
ARM GAS  C:\Users\sheld\AppData\Local\Temp\ccyL9JRa.s 			page 3


  87:../../Drivers/STM32H7xx_HAL_Driver/Src/stm32h7xx_hal_mmc_ex.c ****                                                  uint32_t *pDataBuffer1, uint32_t BufferSize)
  88:../../Drivers/STM32H7xx_HAL_Driver/Src/stm32h7xx_hal_mmc_ex.c **** {
  30              		.loc 1 88 1 view -0
  31              		.cfi_startproc
  32              		@ args = 0, pretend = 0, frame = 0
  33              		@ frame_needed = 0, uses_anonymous_args = 0
  34              		@ link register save eliminated.
  89:../../Drivers/STM32H7xx_HAL_Driver/Src/stm32h7xx_hal_mmc_ex.c ****   if (hmmc->State == HAL_MMC_STATE_READY)
  35              		.loc 1 89 3 view .LVU1
  36              		.loc 1 89 11 is_stmt 0 view .LVU2
  37 0000 90F830C0 		ldrb	ip, [r0, #48]	@ zero_extendqisi2
  38 0004 5FFA8CFC 		uxtb	ip, ip
  39              		.loc 1 89 6 view .LVU3
  40 0008 BCF1010F 		cmp	ip, #1
  41 000c 01D0     		beq	.L8
  90:../../Drivers/STM32H7xx_HAL_Driver/Src/stm32h7xx_hal_mmc_ex.c ****   {
  91:../../Drivers/STM32H7xx_HAL_Driver/Src/stm32h7xx_hal_mmc_ex.c ****     hmmc->Instance->IDMABASE0 = (uint32_t) pDataBuffer0 ;
  92:../../Drivers/STM32H7xx_HAL_Driver/Src/stm32h7xx_hal_mmc_ex.c ****     hmmc->Instance->IDMABASE1 = (uint32_t) pDataBuffer1 ;
  93:../../Drivers/STM32H7xx_HAL_Driver/Src/stm32h7xx_hal_mmc_ex.c ****     hmmc->Instance->IDMABSIZE = (uint32_t)(MMC_BLOCKSIZE * BufferSize);
  94:../../Drivers/STM32H7xx_HAL_Driver/Src/stm32h7xx_hal_mmc_ex.c **** 
  95:../../Drivers/STM32H7xx_HAL_Driver/Src/stm32h7xx_hal_mmc_ex.c ****     return HAL_OK;
  96:../../Drivers/STM32H7xx_HAL_Driver/Src/stm32h7xx_hal_mmc_ex.c ****   }
  97:../../Drivers/STM32H7xx_HAL_Driver/Src/stm32h7xx_hal_mmc_ex.c ****   else
  98:../../Drivers/STM32H7xx_HAL_Driver/Src/stm32h7xx_hal_mmc_ex.c ****   {
  99:../../Drivers/STM32H7xx_HAL_Driver/Src/stm32h7xx_hal_mmc_ex.c ****     return HAL_BUSY;
  42              		.loc 1 99 12 view .LVU4
  43 000e 0220     		movs	r0, #2
  44              	.LVL1:
 100:../../Drivers/STM32H7xx_HAL_Driver/Src/stm32h7xx_hal_mmc_ex.c ****   }
 101:../../Drivers/STM32H7xx_HAL_Driver/Src/stm32h7xx_hal_mmc_ex.c **** }
  45              		.loc 1 101 1 view .LVU5
  46 0010 7047     		bx	lr
  47              	.LVL2:
  48              	.L8:
  88:../../Drivers/STM32H7xx_HAL_Driver/Src/stm32h7xx_hal_mmc_ex.c ****   if (hmmc->State == HAL_MMC_STATE_READY)
  49              		.loc 1 88 1 view .LVU6
  50 0012 10B4     		push	{r4}
  51              	.LCFI0:
  52              		.cfi_def_cfa_offset 4
  53              		.cfi_offset 4, -4
  91:../../Drivers/STM32H7xx_HAL_Driver/Src/stm32h7xx_hal_mmc_ex.c ****     hmmc->Instance->IDMABASE1 = (uint32_t) pDataBuffer1 ;
  54              		.loc 1 91 5 is_stmt 1 view .LVU7
  91:../../Drivers/STM32H7xx_HAL_Driver/Src/stm32h7xx_hal_mmc_ex.c ****     hmmc->Instance->IDMABASE1 = (uint32_t) pDataBuffer1 ;
  55              		.loc 1 91 31 is_stmt 0 view .LVU8
  56 0014 0468     		ldr	r4, [r0]
  57 0016 A165     		str	r1, [r4, #88]
  92:../../Drivers/STM32H7xx_HAL_Driver/Src/stm32h7xx_hal_mmc_ex.c ****     hmmc->Instance->IDMABSIZE = (uint32_t)(MMC_BLOCKSIZE * BufferSize);
  58              		.loc 1 92 5 is_stmt 1 view .LVU9
  92:../../Drivers/STM32H7xx_HAL_Driver/Src/stm32h7xx_hal_mmc_ex.c ****     hmmc->Instance->IDMABSIZE = (uint32_t)(MMC_BLOCKSIZE * BufferSize);
  59              		.loc 1 92 9 is_stmt 0 view .LVU10
  60 0018 0168     		ldr	r1, [r0]
  61              	.LVL3:
  92:../../Drivers/STM32H7xx_HAL_Driver/Src/stm32h7xx_hal_mmc_ex.c ****     hmmc->Instance->IDMABSIZE = (uint32_t)(MMC_BLOCKSIZE * BufferSize);
  62              		.loc 1 92 31 view .LVU11
  63 001a CA65     		str	r2, [r1, #92]
  64              	.LVL4:
  93:../../Drivers/STM32H7xx_HAL_Driver/Src/stm32h7xx_hal_mmc_ex.c **** 
ARM GAS  C:\Users\sheld\AppData\Local\Temp\ccyL9JRa.s 			page 4


  65              		.loc 1 93 5 is_stmt 1 view .LVU12
  93:../../Drivers/STM32H7xx_HAL_Driver/Src/stm32h7xx_hal_mmc_ex.c **** 
  66              		.loc 1 93 9 is_stmt 0 view .LVU13
  67 001c 0268     		ldr	r2, [r0]
  68              	.LVL5:
  93:../../Drivers/STM32H7xx_HAL_Driver/Src/stm32h7xx_hal_mmc_ex.c **** 
  69              		.loc 1 93 33 view .LVU14
  70 001e 5B02     		lsls	r3, r3, #9
  71              	.LVL6:
  93:../../Drivers/STM32H7xx_HAL_Driver/Src/stm32h7xx_hal_mmc_ex.c **** 
  72              		.loc 1 93 31 view .LVU15
  73 0020 5365     		str	r3, [r2, #84]
  74              	.LVL7:
  95:../../Drivers/STM32H7xx_HAL_Driver/Src/stm32h7xx_hal_mmc_ex.c ****   }
  75              		.loc 1 95 5 is_stmt 1 view .LVU16
  95:../../Drivers/STM32H7xx_HAL_Driver/Src/stm32h7xx_hal_mmc_ex.c ****   }
  76              		.loc 1 95 12 is_stmt 0 view .LVU17
  77 0022 0020     		movs	r0, #0
  78              	.LVL8:
  79              		.loc 1 101 1 view .LVU18
  80 0024 5DF8044B 		ldr	r4, [sp], #4
  81              	.LCFI1:
  82              		.cfi_restore 4
  83              		.cfi_def_cfa_offset 0
  84 0028 7047     		bx	lr
  85              		.cfi_endproc
  86              	.LFE132:
  88              		.section	.text.HAL_MMCEx_ReadBlocksDMAMultiBuffer,"ax",%progbits
  89              		.align	1
  90              		.global	HAL_MMCEx_ReadBlocksDMAMultiBuffer
  91              		.syntax unified
  92              		.thumb
  93              		.thumb_func
  95              	HAL_MMCEx_ReadBlocksDMAMultiBuffer:
  96              	.LVL9:
  97              	.LFB133:
 102:../../Drivers/STM32H7xx_HAL_Driver/Src/stm32h7xx_hal_mmc_ex.c **** 
 103:../../Drivers/STM32H7xx_HAL_Driver/Src/stm32h7xx_hal_mmc_ex.c **** /**
 104:../../Drivers/STM32H7xx_HAL_Driver/Src/stm32h7xx_hal_mmc_ex.c ****   * @brief  Reads block(s) from a specified address in a card. The received Data will be stored in 
 105:../../Drivers/STM32H7xx_HAL_Driver/Src/stm32h7xx_hal_mmc_ex.c ****   *         Buffer0, Buffer1 and BufferSize need to be configured by function HAL_MMCEx_ConfigDMAMu
 106:../../Drivers/STM32H7xx_HAL_Driver/Src/stm32h7xx_hal_mmc_ex.c ****   *         call this function.
 107:../../Drivers/STM32H7xx_HAL_Driver/Src/stm32h7xx_hal_mmc_ex.c ****   * @param  hmmc: MMC handle
 108:../../Drivers/STM32H7xx_HAL_Driver/Src/stm32h7xx_hal_mmc_ex.c ****   * @param  BlockAdd: Block Address from where data is to be read
 109:../../Drivers/STM32H7xx_HAL_Driver/Src/stm32h7xx_hal_mmc_ex.c ****   * @param  NumberOfBlocks: Total number of blocks to read
 110:../../Drivers/STM32H7xx_HAL_Driver/Src/stm32h7xx_hal_mmc_ex.c ****   * @retval HAL status
 111:../../Drivers/STM32H7xx_HAL_Driver/Src/stm32h7xx_hal_mmc_ex.c ****   */
 112:../../Drivers/STM32H7xx_HAL_Driver/Src/stm32h7xx_hal_mmc_ex.c **** HAL_StatusTypeDef HAL_MMCEx_ReadBlocksDMAMultiBuffer(MMC_HandleTypeDef *hmmc, uint32_t BlockAdd,
 113:../../Drivers/STM32H7xx_HAL_Driver/Src/stm32h7xx_hal_mmc_ex.c ****                                                      uint32_t NumberOfBlocks)
 114:../../Drivers/STM32H7xx_HAL_Driver/Src/stm32h7xx_hal_mmc_ex.c **** {
  98              		.loc 1 114 1 is_stmt 1 view -0
  99              		.cfi_startproc
 100              		@ args = 0, pretend = 0, frame = 24
 101              		@ frame_needed = 0, uses_anonymous_args = 0
 102              		.loc 1 114 1 is_stmt 0 view .LVU20
 103 0000 F0B5     		push	{r4, r5, r6, r7, lr}
 104              	.LCFI2:
 105              		.cfi_def_cfa_offset 20
ARM GAS  C:\Users\sheld\AppData\Local\Temp\ccyL9JRa.s 			page 5


 106              		.cfi_offset 4, -20
 107              		.cfi_offset 5, -16
 108              		.cfi_offset 6, -12
 109              		.cfi_offset 7, -8
 110              		.cfi_offset 14, -4
 111 0002 87B0     		sub	sp, sp, #28
 112              	.LCFI3:
 113              		.cfi_def_cfa_offset 48
 115:../../Drivers/STM32H7xx_HAL_Driver/Src/stm32h7xx_hal_mmc_ex.c ****   SDMMC_DataInitTypeDef config;
 114              		.loc 1 115 3 is_stmt 1 view .LVU21
 116:../../Drivers/STM32H7xx_HAL_Driver/Src/stm32h7xx_hal_mmc_ex.c ****   uint32_t DmaBase0_reg;
 115              		.loc 1 116 3 view .LVU22
 117:../../Drivers/STM32H7xx_HAL_Driver/Src/stm32h7xx_hal_mmc_ex.c ****   uint32_t DmaBase1_reg;
 116              		.loc 1 117 3 view .LVU23
 118:../../Drivers/STM32H7xx_HAL_Driver/Src/stm32h7xx_hal_mmc_ex.c ****   uint32_t errorstate;
 117              		.loc 1 118 3 view .LVU24
 119:../../Drivers/STM32H7xx_HAL_Driver/Src/stm32h7xx_hal_mmc_ex.c ****   uint32_t add = BlockAdd;
 118              		.loc 1 119 3 view .LVU25
 119              	.LVL10:
 120:../../Drivers/STM32H7xx_HAL_Driver/Src/stm32h7xx_hal_mmc_ex.c **** 
 121:../../Drivers/STM32H7xx_HAL_Driver/Src/stm32h7xx_hal_mmc_ex.c ****   if (hmmc->State == HAL_MMC_STATE_READY)
 120              		.loc 1 121 3 view .LVU26
 121              		.loc 1 121 11 is_stmt 0 view .LVU27
 122 0004 90F83050 		ldrb	r5, [r0, #48]	@ zero_extendqisi2
 123 0008 EDB2     		uxtb	r5, r5
 124              		.loc 1 121 6 view .LVU28
 125 000a 012D     		cmp	r5, #1
 126 000c 6AD1     		bne	.L19
 127 000e 0446     		mov	r4, r0
 128 0010 0E46     		mov	r6, r1
 122:../../Drivers/STM32H7xx_HAL_Driver/Src/stm32h7xx_hal_mmc_ex.c ****   {
 123:../../Drivers/STM32H7xx_HAL_Driver/Src/stm32h7xx_hal_mmc_ex.c ****     if ((BlockAdd + NumberOfBlocks) > (hmmc->MmcCard.LogBlockNbr))
 129              		.loc 1 123 5 is_stmt 1 view .LVU29
 130              		.loc 1 123 19 is_stmt 0 view .LVU30
 131 0012 8B18     		adds	r3, r1, r2
 132              		.loc 1 123 53 view .LVU31
 133 0014 C16C     		ldr	r1, [r0, #76]
 134              	.LVL11:
 135              		.loc 1 123 8 view .LVU32
 136 0016 8B42     		cmp	r3, r1
 137 0018 4AD8     		bhi	.L21
 124:../../Drivers/STM32H7xx_HAL_Driver/Src/stm32h7xx_hal_mmc_ex.c ****     {
 125:../../Drivers/STM32H7xx_HAL_Driver/Src/stm32h7xx_hal_mmc_ex.c ****       hmmc->ErrorCode |= HAL_MMC_ERROR_ADDR_OUT_OF_RANGE;
 126:../../Drivers/STM32H7xx_HAL_Driver/Src/stm32h7xx_hal_mmc_ex.c ****       return HAL_ERROR;
 127:../../Drivers/STM32H7xx_HAL_Driver/Src/stm32h7xx_hal_mmc_ex.c ****     }
 128:../../Drivers/STM32H7xx_HAL_Driver/Src/stm32h7xx_hal_mmc_ex.c **** 
 129:../../Drivers/STM32H7xx_HAL_Driver/Src/stm32h7xx_hal_mmc_ex.c ****     /* Check the case of 4kB blocks (field DATA SECTOR SIZE of extended CSD register) */
 130:../../Drivers/STM32H7xx_HAL_Driver/Src/stm32h7xx_hal_mmc_ex.c ****     if (((hmmc->Ext_CSD[(MMC_EXT_CSD_DATA_SEC_SIZE_INDEX / 4)] >> MMC_EXT_CSD_DATA_SEC_SIZE_POS) & 
 138              		.loc 1 130 5 is_stmt 1 view .LVU33
 139              		.loc 1 130 98 is_stmt 0 view .LVU34
 140 001a 90F8B130 		ldrb	r3, [r0, #177]	@ zero_extendqisi2
 141              		.loc 1 130 8 view .LVU35
 142 001e 2BB1     		cbz	r3, .L12
 131:../../Drivers/STM32H7xx_HAL_Driver/Src/stm32h7xx_hal_mmc_ex.c ****     {
 132:../../Drivers/STM32H7xx_HAL_Driver/Src/stm32h7xx_hal_mmc_ex.c ****       if ((NumberOfBlocks % 8U) != 0U)
 143              		.loc 1 132 7 is_stmt 1 view .LVU36
 144              		.loc 1 132 10 is_stmt 0 view .LVU37
ARM GAS  C:\Users\sheld\AppData\Local\Temp\ccyL9JRa.s 			page 6


 145 0020 12F0070F 		tst	r2, #7
 146 0024 49D1     		bne	.L22
 133:../../Drivers/STM32H7xx_HAL_Driver/Src/stm32h7xx_hal_mmc_ex.c ****       {
 134:../../Drivers/STM32H7xx_HAL_Driver/Src/stm32h7xx_hal_mmc_ex.c ****         /* The number of blocks should be a multiple of 8 sectors of 512 bytes = 4 KBytes */
 135:../../Drivers/STM32H7xx_HAL_Driver/Src/stm32h7xx_hal_mmc_ex.c ****         hmmc->ErrorCode |= HAL_MMC_ERROR_BLOCK_LEN_ERR;
 136:../../Drivers/STM32H7xx_HAL_Driver/Src/stm32h7xx_hal_mmc_ex.c ****         return HAL_ERROR;
 137:../../Drivers/STM32H7xx_HAL_Driver/Src/stm32h7xx_hal_mmc_ex.c ****       }
 138:../../Drivers/STM32H7xx_HAL_Driver/Src/stm32h7xx_hal_mmc_ex.c **** 
 139:../../Drivers/STM32H7xx_HAL_Driver/Src/stm32h7xx_hal_mmc_ex.c ****       if ((BlockAdd % 8U) != 0U)
 147              		.loc 1 139 7 is_stmt 1 view .LVU38
 148              		.loc 1 139 10 is_stmt 0 view .LVU39
 149 0026 16F0070F 		tst	r6, #7
 150 002a 4BD1     		bne	.L23
 151              	.L12:
 140:../../Drivers/STM32H7xx_HAL_Driver/Src/stm32h7xx_hal_mmc_ex.c ****       {
 141:../../Drivers/STM32H7xx_HAL_Driver/Src/stm32h7xx_hal_mmc_ex.c ****         /* The address should be aligned to 8 (corresponding to 4 KBytes blocks) */
 142:../../Drivers/STM32H7xx_HAL_Driver/Src/stm32h7xx_hal_mmc_ex.c ****         hmmc->ErrorCode |= HAL_MMC_ERROR_ADDR_MISALIGNED;
 143:../../Drivers/STM32H7xx_HAL_Driver/Src/stm32h7xx_hal_mmc_ex.c ****         return HAL_ERROR;
 144:../../Drivers/STM32H7xx_HAL_Driver/Src/stm32h7xx_hal_mmc_ex.c ****       }
 145:../../Drivers/STM32H7xx_HAL_Driver/Src/stm32h7xx_hal_mmc_ex.c ****     }
 146:../../Drivers/STM32H7xx_HAL_Driver/Src/stm32h7xx_hal_mmc_ex.c **** 
 147:../../Drivers/STM32H7xx_HAL_Driver/Src/stm32h7xx_hal_mmc_ex.c ****     DmaBase0_reg = hmmc->Instance->IDMABASE0;
 152              		.loc 1 147 5 is_stmt 1 view .LVU40
 153              		.loc 1 147 24 is_stmt 0 view .LVU41
 154 002c 2368     		ldr	r3, [r4]
 155              		.loc 1 147 18 view .LVU42
 156 002e 9F6D     		ldr	r7, [r3, #88]
 157              	.LVL12:
 148:../../Drivers/STM32H7xx_HAL_Driver/Src/stm32h7xx_hal_mmc_ex.c ****     DmaBase1_reg = hmmc->Instance->IDMABASE1;
 158              		.loc 1 148 5 is_stmt 1 view .LVU43
 159              		.loc 1 148 18 is_stmt 0 view .LVU44
 160 0030 D96D     		ldr	r1, [r3, #92]
 161              	.LVL13:
 149:../../Drivers/STM32H7xx_HAL_Driver/Src/stm32h7xx_hal_mmc_ex.c **** 
 150:../../Drivers/STM32H7xx_HAL_Driver/Src/stm32h7xx_hal_mmc_ex.c ****     if ((hmmc->Instance->IDMABSIZE == 0U) || (DmaBase0_reg == 0U) || (DmaBase1_reg == 0U))
 162              		.loc 1 150 5 is_stmt 1 view .LVU45
 163              		.loc 1 150 24 is_stmt 0 view .LVU46
 164 0032 586D     		ldr	r0, [r3, #84]
 165              	.LVL14:
 166              		.loc 1 150 8 view .LVU47
 167 0034 0028     		cmp	r0, #0
 168 0036 4AD0     		beq	.L14
 169              		.loc 1 150 84 discriminator 1 view .LVU48
 170 0038 B1FA81F1 		clz	r1, r1
 171              	.LVL15:
 172              		.loc 1 150 84 discriminator 1 view .LVU49
 173 003c 4909     		lsrs	r1, r1, #5
 174              		.loc 1 150 67 discriminator 1 view .LVU50
 175 003e 002F     		cmp	r7, #0
 176 0040 45D0     		beq	.L14
 177 0042 0029     		cmp	r1, #0
 178 0044 43D1     		bne	.L14
 151:../../Drivers/STM32H7xx_HAL_Driver/Src/stm32h7xx_hal_mmc_ex.c ****     {
 152:../../Drivers/STM32H7xx_HAL_Driver/Src/stm32h7xx_hal_mmc_ex.c ****       hmmc->ErrorCode = HAL_MMC_ERROR_ADDR_OUT_OF_RANGE;
 153:../../Drivers/STM32H7xx_HAL_Driver/Src/stm32h7xx_hal_mmc_ex.c ****       return HAL_ERROR;
 154:../../Drivers/STM32H7xx_HAL_Driver/Src/stm32h7xx_hal_mmc_ex.c ****     }
 155:../../Drivers/STM32H7xx_HAL_Driver/Src/stm32h7xx_hal_mmc_ex.c **** 
ARM GAS  C:\Users\sheld\AppData\Local\Temp\ccyL9JRa.s 			page 7


 156:../../Drivers/STM32H7xx_HAL_Driver/Src/stm32h7xx_hal_mmc_ex.c ****     /* Initialize data control register */
 157:../../Drivers/STM32H7xx_HAL_Driver/Src/stm32h7xx_hal_mmc_ex.c ****     hmmc->Instance->DCTRL = 0;
 179              		.loc 1 157 5 is_stmt 1 view .LVU51
 180              		.loc 1 157 27 is_stmt 0 view .LVU52
 181 0046 0021     		movs	r1, #0
 182 0048 D962     		str	r1, [r3, #44]
 158:../../Drivers/STM32H7xx_HAL_Driver/Src/stm32h7xx_hal_mmc_ex.c **** 
 159:../../Drivers/STM32H7xx_HAL_Driver/Src/stm32h7xx_hal_mmc_ex.c ****     hmmc->ErrorCode = HAL_MMC_ERROR_NONE;
 183              		.loc 1 159 5 is_stmt 1 view .LVU53
 184              		.loc 1 159 21 is_stmt 0 view .LVU54
 185 004a 6163     		str	r1, [r4, #52]
 160:../../Drivers/STM32H7xx_HAL_Driver/Src/stm32h7xx_hal_mmc_ex.c ****     hmmc->State = HAL_MMC_STATE_BUSY;
 186              		.loc 1 160 5 is_stmt 1 view .LVU55
 187              		.loc 1 160 17 is_stmt 0 view .LVU56
 188 004c 0323     		movs	r3, #3
 189 004e 84F83030 		strb	r3, [r4, #48]
 161:../../Drivers/STM32H7xx_HAL_Driver/Src/stm32h7xx_hal_mmc_ex.c **** 
 162:../../Drivers/STM32H7xx_HAL_Driver/Src/stm32h7xx_hal_mmc_ex.c ****     if ((hmmc->MmcCard.CardType) != MMC_HIGH_CAPACITY_CARD)
 190              		.loc 1 162 5 is_stmt 1 view .LVU57
 191              		.loc 1 162 23 is_stmt 0 view .LVU58
 192 0052 A36B     		ldr	r3, [r4, #56]
 193              		.loc 1 162 8 view .LVU59
 194 0054 012B     		cmp	r3, #1
 195 0056 00D0     		beq	.L17
 163:../../Drivers/STM32H7xx_HAL_Driver/Src/stm32h7xx_hal_mmc_ex.c ****     {
 164:../../Drivers/STM32H7xx_HAL_Driver/Src/stm32h7xx_hal_mmc_ex.c ****       add *= 512U;
 196              		.loc 1 164 7 is_stmt 1 view .LVU60
 197              		.loc 1 164 11 is_stmt 0 view .LVU61
 198 0058 7602     		lsls	r6, r6, #9
 199              	.LVL16:
 200              	.L17:
 165:../../Drivers/STM32H7xx_HAL_Driver/Src/stm32h7xx_hal_mmc_ex.c ****     }
 166:../../Drivers/STM32H7xx_HAL_Driver/Src/stm32h7xx_hal_mmc_ex.c **** 
 167:../../Drivers/STM32H7xx_HAL_Driver/Src/stm32h7xx_hal_mmc_ex.c ****     /* Configure the MMC DPSM (Data Path State Machine) */
 168:../../Drivers/STM32H7xx_HAL_Driver/Src/stm32h7xx_hal_mmc_ex.c ****     config.DataTimeOut   = SDMMC_DATATIMEOUT;
 201              		.loc 1 168 5 is_stmt 1 view .LVU62
 202              		.loc 1 168 26 is_stmt 0 view .LVU63
 203 005a 4FF0FF33 		mov	r3, #-1
 204 005e 0093     		str	r3, [sp]
 169:../../Drivers/STM32H7xx_HAL_Driver/Src/stm32h7xx_hal_mmc_ex.c ****     config.DataLength    = MMC_BLOCKSIZE * NumberOfBlocks;
 205              		.loc 1 169 5 is_stmt 1 view .LVU64
 206              		.loc 1 169 42 is_stmt 0 view .LVU65
 207 0060 5202     		lsls	r2, r2, #9
 208              	.LVL17:
 209              		.loc 1 169 26 view .LVU66
 210 0062 0192     		str	r2, [sp, #4]
 170:../../Drivers/STM32H7xx_HAL_Driver/Src/stm32h7xx_hal_mmc_ex.c ****     config.DataBlockSize = SDMMC_DATABLOCK_SIZE_512B;
 211              		.loc 1 170 5 is_stmt 1 view .LVU67
 212              		.loc 1 170 26 is_stmt 0 view .LVU68
 213 0064 9023     		movs	r3, #144
 214 0066 0293     		str	r3, [sp, #8]
 171:../../Drivers/STM32H7xx_HAL_Driver/Src/stm32h7xx_hal_mmc_ex.c ****     config.TransferDir   = SDMMC_TRANSFER_DIR_TO_SDMMC;
 215              		.loc 1 171 5 is_stmt 1 view .LVU69
 216              		.loc 1 171 26 is_stmt 0 view .LVU70
 217 0068 0223     		movs	r3, #2
 218 006a 0393     		str	r3, [sp, #12]
 172:../../Drivers/STM32H7xx_HAL_Driver/Src/stm32h7xx_hal_mmc_ex.c ****     config.TransferMode  = SDMMC_TRANSFER_MODE_BLOCK;
ARM GAS  C:\Users\sheld\AppData\Local\Temp\ccyL9JRa.s 			page 8


 219              		.loc 1 172 5 is_stmt 1 view .LVU71
 220              		.loc 1 172 26 is_stmt 0 view .LVU72
 221 006c 0023     		movs	r3, #0
 222 006e 0493     		str	r3, [sp, #16]
 173:../../Drivers/STM32H7xx_HAL_Driver/Src/stm32h7xx_hal_mmc_ex.c ****     config.DPSM          = SDMMC_DPSM_DISABLE;
 223              		.loc 1 173 5 is_stmt 1 view .LVU73
 224              		.loc 1 173 26 is_stmt 0 view .LVU74
 225 0070 0593     		str	r3, [sp, #20]
 174:../../Drivers/STM32H7xx_HAL_Driver/Src/stm32h7xx_hal_mmc_ex.c ****     (void)SDMMC_ConfigData(hmmc->Instance, &config);
 226              		.loc 1 174 5 is_stmt 1 view .LVU75
 227              		.loc 1 174 11 is_stmt 0 view .LVU76
 228 0072 6946     		mov	r1, sp
 229 0074 2068     		ldr	r0, [r4]
 230 0076 FFF7FEFF 		bl	SDMMC_ConfigData
 231              	.LVL18:
 175:../../Drivers/STM32H7xx_HAL_Driver/Src/stm32h7xx_hal_mmc_ex.c **** 
 176:../../Drivers/STM32H7xx_HAL_Driver/Src/stm32h7xx_hal_mmc_ex.c ****     hmmc->Instance->DCTRL |= SDMMC_DCTRL_FIFORST;
 232              		.loc 1 176 5 is_stmt 1 view .LVU77
 233              		.loc 1 176 9 is_stmt 0 view .LVU78
 234 007a 2268     		ldr	r2, [r4]
 235              		.loc 1 176 27 view .LVU79
 236 007c D36A     		ldr	r3, [r2, #44]
 237 007e 43F40053 		orr	r3, r3, #8192
 238 0082 D362     		str	r3, [r2, #44]
 177:../../Drivers/STM32H7xx_HAL_Driver/Src/stm32h7xx_hal_mmc_ex.c **** 
 178:../../Drivers/STM32H7xx_HAL_Driver/Src/stm32h7xx_hal_mmc_ex.c ****     __SDMMC_CMDTRANS_ENABLE(hmmc->Instance);
 239              		.loc 1 178 5 is_stmt 1 view .LVU80
 240 0084 2268     		ldr	r2, [r4]
 241 0086 D368     		ldr	r3, [r2, #12]
 242 0088 43F04003 		orr	r3, r3, #64
 243 008c D360     		str	r3, [r2, #12]
 179:../../Drivers/STM32H7xx_HAL_Driver/Src/stm32h7xx_hal_mmc_ex.c **** 
 180:../../Drivers/STM32H7xx_HAL_Driver/Src/stm32h7xx_hal_mmc_ex.c ****     hmmc->Instance->IDMACTRL = SDMMC_ENABLE_IDMA_DOUBLE_BUFF0;
 244              		.loc 1 180 5 view .LVU81
 245              		.loc 1 180 9 is_stmt 0 view .LVU82
 246 008e 2368     		ldr	r3, [r4]
 247              		.loc 1 180 30 view .LVU83
 248 0090 0322     		movs	r2, #3
 249 0092 1A65     		str	r2, [r3, #80]
 181:../../Drivers/STM32H7xx_HAL_Driver/Src/stm32h7xx_hal_mmc_ex.c **** 
 182:../../Drivers/STM32H7xx_HAL_Driver/Src/stm32h7xx_hal_mmc_ex.c ****     /* Read Blocks in DMA mode */
 183:../../Drivers/STM32H7xx_HAL_Driver/Src/stm32h7xx_hal_mmc_ex.c ****     hmmc->Context = (MMC_CONTEXT_READ_MULTIPLE_BLOCK | MMC_CONTEXT_DMA);
 250              		.loc 1 183 5 is_stmt 1 view .LVU84
 251              		.loc 1 183 19 is_stmt 0 view .LVU85
 252 0094 8223     		movs	r3, #130
 253 0096 E362     		str	r3, [r4, #44]
 184:../../Drivers/STM32H7xx_HAL_Driver/Src/stm32h7xx_hal_mmc_ex.c **** 
 185:../../Drivers/STM32H7xx_HAL_Driver/Src/stm32h7xx_hal_mmc_ex.c ****     /* Read Multi Block command */
 186:../../Drivers/STM32H7xx_HAL_Driver/Src/stm32h7xx_hal_mmc_ex.c ****     errorstate = SDMMC_CmdReadMultiBlock(hmmc->Instance, add);
 254              		.loc 1 186 5 is_stmt 1 view .LVU86
 255              		.loc 1 186 18 is_stmt 0 view .LVU87
 256 0098 3146     		mov	r1, r6
 257 009a 2068     		ldr	r0, [r4]
 258 009c FFF7FEFF 		bl	SDMMC_CmdReadMultiBlock
 259              	.LVL19:
 187:../../Drivers/STM32H7xx_HAL_Driver/Src/stm32h7xx_hal_mmc_ex.c ****     if (errorstate != HAL_MMC_ERROR_NONE)
 260              		.loc 1 187 5 is_stmt 1 view .LVU88
ARM GAS  C:\Users\sheld\AppData\Local\Temp\ccyL9JRa.s 			page 9


 261              		.loc 1 187 8 is_stmt 0 view .LVU89
 262 00a0 C8B1     		cbz	r0, .L18
 188:../../Drivers/STM32H7xx_HAL_Driver/Src/stm32h7xx_hal_mmc_ex.c ****     {
 189:../../Drivers/STM32H7xx_HAL_Driver/Src/stm32h7xx_hal_mmc_ex.c ****       hmmc->State = HAL_MMC_STATE_READY;
 263              		.loc 1 189 7 is_stmt 1 view .LVU90
 264              		.loc 1 189 19 is_stmt 0 view .LVU91
 265 00a2 0123     		movs	r3, #1
 266 00a4 84F83030 		strb	r3, [r4, #48]
 190:../../Drivers/STM32H7xx_HAL_Driver/Src/stm32h7xx_hal_mmc_ex.c ****       hmmc->ErrorCode |= errorstate;
 267              		.loc 1 190 7 is_stmt 1 view .LVU92
 268              		.loc 1 190 23 is_stmt 0 view .LVU93
 269 00a8 636B     		ldr	r3, [r4, #52]
 270 00aa 0343     		orrs	r3, r3, r0
 271 00ac 6363     		str	r3, [r4, #52]
 191:../../Drivers/STM32H7xx_HAL_Driver/Src/stm32h7xx_hal_mmc_ex.c ****       return HAL_ERROR;
 272              		.loc 1 191 7 is_stmt 1 view .LVU94
 273              		.loc 1 191 14 is_stmt 0 view .LVU95
 274 00ae 1AE0     		b	.L10
 275              	.LVL20:
 276              	.L21:
 125:../../Drivers/STM32H7xx_HAL_Driver/Src/stm32h7xx_hal_mmc_ex.c ****       return HAL_ERROR;
 277              		.loc 1 125 7 is_stmt 1 view .LVU96
 125:../../Drivers/STM32H7xx_HAL_Driver/Src/stm32h7xx_hal_mmc_ex.c ****       return HAL_ERROR;
 278              		.loc 1 125 23 is_stmt 0 view .LVU97
 279 00b0 436B     		ldr	r3, [r0, #52]
 280 00b2 43F00073 		orr	r3, r3, #33554432
 281 00b6 4363     		str	r3, [r0, #52]
 126:../../Drivers/STM32H7xx_HAL_Driver/Src/stm32h7xx_hal_mmc_ex.c ****     }
 282              		.loc 1 126 7 is_stmt 1 view .LVU98
 126:../../Drivers/STM32H7xx_HAL_Driver/Src/stm32h7xx_hal_mmc_ex.c ****     }
 283              		.loc 1 126 14 is_stmt 0 view .LVU99
 284 00b8 15E0     		b	.L10
 285              	.L22:
 135:../../Drivers/STM32H7xx_HAL_Driver/Src/stm32h7xx_hal_mmc_ex.c ****         return HAL_ERROR;
 286              		.loc 1 135 9 is_stmt 1 view .LVU100
 135:../../Drivers/STM32H7xx_HAL_Driver/Src/stm32h7xx_hal_mmc_ex.c ****         return HAL_ERROR;
 287              		.loc 1 135 25 is_stmt 0 view .LVU101
 288 00ba 436B     		ldr	r3, [r0, #52]
 289 00bc 43F08003 		orr	r3, r3, #128
 290 00c0 4363     		str	r3, [r0, #52]
 136:../../Drivers/STM32H7xx_HAL_Driver/Src/stm32h7xx_hal_mmc_ex.c ****       }
 291              		.loc 1 136 9 is_stmt 1 view .LVU102
 136:../../Drivers/STM32H7xx_HAL_Driver/Src/stm32h7xx_hal_mmc_ex.c ****       }
 292              		.loc 1 136 16 is_stmt 0 view .LVU103
 293 00c2 10E0     		b	.L10
 294              	.L23:
 142:../../Drivers/STM32H7xx_HAL_Driver/Src/stm32h7xx_hal_mmc_ex.c ****         return HAL_ERROR;
 295              		.loc 1 142 9 is_stmt 1 view .LVU104
 142:../../Drivers/STM32H7xx_HAL_Driver/Src/stm32h7xx_hal_mmc_ex.c ****         return HAL_ERROR;
 296              		.loc 1 142 25 is_stmt 0 view .LVU105
 297 00c4 436B     		ldr	r3, [r0, #52]
 298 00c6 43F04003 		orr	r3, r3, #64
 299 00ca 4363     		str	r3, [r0, #52]
 143:../../Drivers/STM32H7xx_HAL_Driver/Src/stm32h7xx_hal_mmc_ex.c ****       }
 300              		.loc 1 143 9 is_stmt 1 view .LVU106
 143:../../Drivers/STM32H7xx_HAL_Driver/Src/stm32h7xx_hal_mmc_ex.c ****       }
 301              		.loc 1 143 16 is_stmt 0 view .LVU107
ARM GAS  C:\Users\sheld\AppData\Local\Temp\ccyL9JRa.s 			page 10


 302 00cc 0BE0     		b	.L10
 303              	.LVL21:
 304              	.L14:
 152:../../Drivers/STM32H7xx_HAL_Driver/Src/stm32h7xx_hal_mmc_ex.c ****       return HAL_ERROR;
 305              		.loc 1 152 7 is_stmt 1 view .LVU108
 152:../../Drivers/STM32H7xx_HAL_Driver/Src/stm32h7xx_hal_mmc_ex.c ****       return HAL_ERROR;
 306              		.loc 1 152 23 is_stmt 0 view .LVU109
 307 00ce 4FF00073 		mov	r3, #33554432
 308 00d2 6363     		str	r3, [r4, #52]
 153:../../Drivers/STM32H7xx_HAL_Driver/Src/stm32h7xx_hal_mmc_ex.c ****     }
 309              		.loc 1 153 7 is_stmt 1 view .LVU110
 153:../../Drivers/STM32H7xx_HAL_Driver/Src/stm32h7xx_hal_mmc_ex.c ****     }
 310              		.loc 1 153 14 is_stmt 0 view .LVU111
 311 00d4 07E0     		b	.L10
 312              	.LVL22:
 313              	.L18:
 192:../../Drivers/STM32H7xx_HAL_Driver/Src/stm32h7xx_hal_mmc_ex.c ****     }
 193:../../Drivers/STM32H7xx_HAL_Driver/Src/stm32h7xx_hal_mmc_ex.c **** 
 194:../../Drivers/STM32H7xx_HAL_Driver/Src/stm32h7xx_hal_mmc_ex.c ****     __HAL_MMC_ENABLE_IT(hmmc, (SDMMC_IT_DCRCFAIL | SDMMC_IT_DTIMEOUT | SDMMC_IT_RXOVERR | SDMMC_IT_
 314              		.loc 1 194 5 is_stmt 1 view .LVU112
 315 00d6 2268     		ldr	r2, [r4]
 316 00d8 D16B     		ldr	r1, [r2, #60]
 317 00da 044B     		ldr	r3, .L24
 318 00dc 0B43     		orrs	r3, r3, r1
 319 00de D363     		str	r3, [r2, #60]
 195:../../Drivers/STM32H7xx_HAL_Driver/Src/stm32h7xx_hal_mmc_ex.c ****                                SDMMC_FLAG_IDMATE | SDMMC_FLAG_IDMABTC));
 196:../../Drivers/STM32H7xx_HAL_Driver/Src/stm32h7xx_hal_mmc_ex.c **** 
 197:../../Drivers/STM32H7xx_HAL_Driver/Src/stm32h7xx_hal_mmc_ex.c ****     return HAL_OK;
 320              		.loc 1 197 5 view .LVU113
 321              		.loc 1 197 12 is_stmt 0 view .LVU114
 322 00e0 0025     		movs	r5, #0
 323 00e2 00E0     		b	.L10
 324              	.LVL23:
 325              	.L19:
 198:../../Drivers/STM32H7xx_HAL_Driver/Src/stm32h7xx_hal_mmc_ex.c ****   }
 199:../../Drivers/STM32H7xx_HAL_Driver/Src/stm32h7xx_hal_mmc_ex.c ****   else
 200:../../Drivers/STM32H7xx_HAL_Driver/Src/stm32h7xx_hal_mmc_ex.c ****   {
 201:../../Drivers/STM32H7xx_HAL_Driver/Src/stm32h7xx_hal_mmc_ex.c ****     return HAL_BUSY;
 326              		.loc 1 201 12 view .LVU115
 327 00e4 0225     		movs	r5, #2
 328              	.LVL24:
 329              	.L10:
 202:../../Drivers/STM32H7xx_HAL_Driver/Src/stm32h7xx_hal_mmc_ex.c ****   }
 203:../../Drivers/STM32H7xx_HAL_Driver/Src/stm32h7xx_hal_mmc_ex.c **** 
 204:../../Drivers/STM32H7xx_HAL_Driver/Src/stm32h7xx_hal_mmc_ex.c **** }
 330              		.loc 1 204 1 view .LVU116
 331 00e6 2846     		mov	r0, r5
 332 00e8 07B0     		add	sp, sp, #28
 333              	.LCFI4:
 334              		.cfi_def_cfa_offset 20
 335              		@ sp needed
 336 00ea F0BD     		pop	{r4, r5, r6, r7, pc}
 337              	.L25:
 338              		.align	2
 339              	.L24:
 340 00ec 2A010018 		.word	402653482
 341              		.cfi_endproc
ARM GAS  C:\Users\sheld\AppData\Local\Temp\ccyL9JRa.s 			page 11


 342              	.LFE133:
 344              		.section	.text.HAL_MMCEx_WriteBlocksDMAMultiBuffer,"ax",%progbits
 345              		.align	1
 346              		.global	HAL_MMCEx_WriteBlocksDMAMultiBuffer
 347              		.syntax unified
 348              		.thumb
 349              		.thumb_func
 351              	HAL_MMCEx_WriteBlocksDMAMultiBuffer:
 352              	.LVL25:
 353              	.LFB134:
 205:../../Drivers/STM32H7xx_HAL_Driver/Src/stm32h7xx_hal_mmc_ex.c **** 
 206:../../Drivers/STM32H7xx_HAL_Driver/Src/stm32h7xx_hal_mmc_ex.c **** /**
 207:../../Drivers/STM32H7xx_HAL_Driver/Src/stm32h7xx_hal_mmc_ex.c ****   * @brief  Write block(s) to a specified address in a card. The transferred Data are stored in Buf
 208:../../Drivers/STM32H7xx_HAL_Driver/Src/stm32h7xx_hal_mmc_ex.c ****   *         Buffer0, Buffer1 and BufferSize need to be configured by function HAL_MMCEx_ConfigDMAMu
 209:../../Drivers/STM32H7xx_HAL_Driver/Src/stm32h7xx_hal_mmc_ex.c ****   *         call this function.
 210:../../Drivers/STM32H7xx_HAL_Driver/Src/stm32h7xx_hal_mmc_ex.c ****   * @param  hmmc: MMC handle
 211:../../Drivers/STM32H7xx_HAL_Driver/Src/stm32h7xx_hal_mmc_ex.c ****   * @param  BlockAdd: Block Address from where data is to be read
 212:../../Drivers/STM32H7xx_HAL_Driver/Src/stm32h7xx_hal_mmc_ex.c ****   * @param  NumberOfBlocks: Total number of blocks to read
 213:../../Drivers/STM32H7xx_HAL_Driver/Src/stm32h7xx_hal_mmc_ex.c ****   * @retval HAL status
 214:../../Drivers/STM32H7xx_HAL_Driver/Src/stm32h7xx_hal_mmc_ex.c ****   */
 215:../../Drivers/STM32H7xx_HAL_Driver/Src/stm32h7xx_hal_mmc_ex.c **** HAL_StatusTypeDef HAL_MMCEx_WriteBlocksDMAMultiBuffer(MMC_HandleTypeDef *hmmc, uint32_t BlockAdd,
 216:../../Drivers/STM32H7xx_HAL_Driver/Src/stm32h7xx_hal_mmc_ex.c ****                                                       uint32_t NumberOfBlocks)
 217:../../Drivers/STM32H7xx_HAL_Driver/Src/stm32h7xx_hal_mmc_ex.c **** {
 354              		.loc 1 217 1 is_stmt 1 view -0
 355              		.cfi_startproc
 356              		@ args = 0, pretend = 0, frame = 24
 357              		@ frame_needed = 0, uses_anonymous_args = 0
 358              		.loc 1 217 1 is_stmt 0 view .LVU118
 359 0000 F0B5     		push	{r4, r5, r6, r7, lr}
 360              	.LCFI5:
 361              		.cfi_def_cfa_offset 20
 362              		.cfi_offset 4, -20
 363              		.cfi_offset 5, -16
 364              		.cfi_offset 6, -12
 365              		.cfi_offset 7, -8
 366              		.cfi_offset 14, -4
 367 0002 87B0     		sub	sp, sp, #28
 368              	.LCFI6:
 369              		.cfi_def_cfa_offset 48
 218:../../Drivers/STM32H7xx_HAL_Driver/Src/stm32h7xx_hal_mmc_ex.c ****   SDMMC_DataInitTypeDef config;
 370              		.loc 1 218 3 is_stmt 1 view .LVU119
 219:../../Drivers/STM32H7xx_HAL_Driver/Src/stm32h7xx_hal_mmc_ex.c ****   uint32_t errorstate;
 371              		.loc 1 219 3 view .LVU120
 220:../../Drivers/STM32H7xx_HAL_Driver/Src/stm32h7xx_hal_mmc_ex.c ****   uint32_t DmaBase0_reg;
 372              		.loc 1 220 3 view .LVU121
 221:../../Drivers/STM32H7xx_HAL_Driver/Src/stm32h7xx_hal_mmc_ex.c ****   uint32_t DmaBase1_reg;
 373              		.loc 1 221 3 view .LVU122
 222:../../Drivers/STM32H7xx_HAL_Driver/Src/stm32h7xx_hal_mmc_ex.c ****   uint32_t add = BlockAdd;
 374              		.loc 1 222 3 view .LVU123
 375              	.LVL26:
 223:../../Drivers/STM32H7xx_HAL_Driver/Src/stm32h7xx_hal_mmc_ex.c **** 
 224:../../Drivers/STM32H7xx_HAL_Driver/Src/stm32h7xx_hal_mmc_ex.c ****   if (hmmc->State == HAL_MMC_STATE_READY)
 376              		.loc 1 224 3 view .LVU124
 377              		.loc 1 224 11 is_stmt 0 view .LVU125
 378 0004 90F83050 		ldrb	r5, [r0, #48]	@ zero_extendqisi2
 379 0008 EDB2     		uxtb	r5, r5
 380              		.loc 1 224 6 view .LVU126
ARM GAS  C:\Users\sheld\AppData\Local\Temp\ccyL9JRa.s 			page 12


 381 000a 012D     		cmp	r5, #1
 382 000c 64D1     		bne	.L36
 383 000e 0446     		mov	r4, r0
 384 0010 0E46     		mov	r6, r1
 225:../../Drivers/STM32H7xx_HAL_Driver/Src/stm32h7xx_hal_mmc_ex.c ****   {
 226:../../Drivers/STM32H7xx_HAL_Driver/Src/stm32h7xx_hal_mmc_ex.c ****     if ((BlockAdd + NumberOfBlocks) > (hmmc->MmcCard.LogBlockNbr))
 385              		.loc 1 226 5 is_stmt 1 view .LVU127
 386              		.loc 1 226 19 is_stmt 0 view .LVU128
 387 0012 8B18     		adds	r3, r1, r2
 388              		.loc 1 226 53 view .LVU129
 389 0014 C16C     		ldr	r1, [r0, #76]
 390              	.LVL27:
 391              		.loc 1 226 8 view .LVU130
 392 0016 8B42     		cmp	r3, r1
 393 0018 44D8     		bhi	.L38
 227:../../Drivers/STM32H7xx_HAL_Driver/Src/stm32h7xx_hal_mmc_ex.c ****     {
 228:../../Drivers/STM32H7xx_HAL_Driver/Src/stm32h7xx_hal_mmc_ex.c ****       hmmc->ErrorCode |= HAL_MMC_ERROR_ADDR_OUT_OF_RANGE;
 229:../../Drivers/STM32H7xx_HAL_Driver/Src/stm32h7xx_hal_mmc_ex.c ****       return HAL_ERROR;
 230:../../Drivers/STM32H7xx_HAL_Driver/Src/stm32h7xx_hal_mmc_ex.c ****     }
 231:../../Drivers/STM32H7xx_HAL_Driver/Src/stm32h7xx_hal_mmc_ex.c **** 
 232:../../Drivers/STM32H7xx_HAL_Driver/Src/stm32h7xx_hal_mmc_ex.c ****     /* Check the case of 4kB blocks (field DATA SECTOR SIZE of extended CSD register) */
 233:../../Drivers/STM32H7xx_HAL_Driver/Src/stm32h7xx_hal_mmc_ex.c ****     if (((hmmc->Ext_CSD[(MMC_EXT_CSD_DATA_SEC_SIZE_INDEX / 4)] >> MMC_EXT_CSD_DATA_SEC_SIZE_POS) & 
 394              		.loc 1 233 5 is_stmt 1 view .LVU131
 395              		.loc 1 233 98 is_stmt 0 view .LVU132
 396 001a 90F8B130 		ldrb	r3, [r0, #177]	@ zero_extendqisi2
 397              		.loc 1 233 8 view .LVU133
 398 001e 2BB1     		cbz	r3, .L29
 234:../../Drivers/STM32H7xx_HAL_Driver/Src/stm32h7xx_hal_mmc_ex.c ****     {
 235:../../Drivers/STM32H7xx_HAL_Driver/Src/stm32h7xx_hal_mmc_ex.c ****       if ((NumberOfBlocks % 8U) != 0U)
 399              		.loc 1 235 7 is_stmt 1 view .LVU134
 400              		.loc 1 235 10 is_stmt 0 view .LVU135
 401 0020 12F0070F 		tst	r2, #7
 402 0024 43D1     		bne	.L39
 236:../../Drivers/STM32H7xx_HAL_Driver/Src/stm32h7xx_hal_mmc_ex.c ****       {
 237:../../Drivers/STM32H7xx_HAL_Driver/Src/stm32h7xx_hal_mmc_ex.c ****         /* The number of blocks should be a multiple of 8 sectors of 512 bytes = 4 KBytes */
 238:../../Drivers/STM32H7xx_HAL_Driver/Src/stm32h7xx_hal_mmc_ex.c ****         hmmc->ErrorCode |= HAL_MMC_ERROR_BLOCK_LEN_ERR;
 239:../../Drivers/STM32H7xx_HAL_Driver/Src/stm32h7xx_hal_mmc_ex.c ****         return HAL_ERROR;
 240:../../Drivers/STM32H7xx_HAL_Driver/Src/stm32h7xx_hal_mmc_ex.c ****       }
 241:../../Drivers/STM32H7xx_HAL_Driver/Src/stm32h7xx_hal_mmc_ex.c **** 
 242:../../Drivers/STM32H7xx_HAL_Driver/Src/stm32h7xx_hal_mmc_ex.c ****       if ((BlockAdd % 8U) != 0U)
 403              		.loc 1 242 7 is_stmt 1 view .LVU136
 404              		.loc 1 242 10 is_stmt 0 view .LVU137
 405 0026 16F0070F 		tst	r6, #7
 406 002a 45D1     		bne	.L40
 407              	.L29:
 243:../../Drivers/STM32H7xx_HAL_Driver/Src/stm32h7xx_hal_mmc_ex.c ****       {
 244:../../Drivers/STM32H7xx_HAL_Driver/Src/stm32h7xx_hal_mmc_ex.c ****         /* The address should be aligned to 8 (corresponding to 4 KBytes blocks) */
 245:../../Drivers/STM32H7xx_HAL_Driver/Src/stm32h7xx_hal_mmc_ex.c ****         hmmc->ErrorCode |= HAL_MMC_ERROR_ADDR_MISALIGNED;
 246:../../Drivers/STM32H7xx_HAL_Driver/Src/stm32h7xx_hal_mmc_ex.c ****         return HAL_ERROR;
 247:../../Drivers/STM32H7xx_HAL_Driver/Src/stm32h7xx_hal_mmc_ex.c ****       }
 248:../../Drivers/STM32H7xx_HAL_Driver/Src/stm32h7xx_hal_mmc_ex.c ****     }
 249:../../Drivers/STM32H7xx_HAL_Driver/Src/stm32h7xx_hal_mmc_ex.c **** 
 250:../../Drivers/STM32H7xx_HAL_Driver/Src/stm32h7xx_hal_mmc_ex.c ****     DmaBase0_reg = hmmc->Instance->IDMABASE0;
 408              		.loc 1 250 5 is_stmt 1 view .LVU138
 409              		.loc 1 250 24 is_stmt 0 view .LVU139
 410 002c 2368     		ldr	r3, [r4]
 411              		.loc 1 250 18 view .LVU140
ARM GAS  C:\Users\sheld\AppData\Local\Temp\ccyL9JRa.s 			page 13


 412 002e 9F6D     		ldr	r7, [r3, #88]
 413              	.LVL28:
 251:../../Drivers/STM32H7xx_HAL_Driver/Src/stm32h7xx_hal_mmc_ex.c ****     DmaBase1_reg = hmmc->Instance->IDMABASE1;
 414              		.loc 1 251 5 is_stmt 1 view .LVU141
 415              		.loc 1 251 18 is_stmt 0 view .LVU142
 416 0030 D96D     		ldr	r1, [r3, #92]
 417              	.LVL29:
 252:../../Drivers/STM32H7xx_HAL_Driver/Src/stm32h7xx_hal_mmc_ex.c **** 
 253:../../Drivers/STM32H7xx_HAL_Driver/Src/stm32h7xx_hal_mmc_ex.c ****     if ((hmmc->Instance->IDMABSIZE == 0U) || (DmaBase0_reg == 0U) || (DmaBase1_reg == 0U))
 418              		.loc 1 253 5 is_stmt 1 view .LVU143
 419              		.loc 1 253 24 is_stmt 0 view .LVU144
 420 0032 586D     		ldr	r0, [r3, #84]
 421              	.LVL30:
 422              		.loc 1 253 8 view .LVU145
 423 0034 0028     		cmp	r0, #0
 424 0036 44D0     		beq	.L31
 425              		.loc 1 253 84 discriminator 1 view .LVU146
 426 0038 B1FA81F1 		clz	r1, r1
 427              	.LVL31:
 428              		.loc 1 253 84 discriminator 1 view .LVU147
 429 003c 4909     		lsrs	r1, r1, #5
 430              		.loc 1 253 67 discriminator 1 view .LVU148
 431 003e 002F     		cmp	r7, #0
 432 0040 3FD0     		beq	.L31
 433 0042 0029     		cmp	r1, #0
 434 0044 3DD1     		bne	.L31
 254:../../Drivers/STM32H7xx_HAL_Driver/Src/stm32h7xx_hal_mmc_ex.c ****     {
 255:../../Drivers/STM32H7xx_HAL_Driver/Src/stm32h7xx_hal_mmc_ex.c ****       hmmc->ErrorCode = HAL_MMC_ERROR_ADDR_OUT_OF_RANGE;
 256:../../Drivers/STM32H7xx_HAL_Driver/Src/stm32h7xx_hal_mmc_ex.c ****       return HAL_ERROR;
 257:../../Drivers/STM32H7xx_HAL_Driver/Src/stm32h7xx_hal_mmc_ex.c ****     }
 258:../../Drivers/STM32H7xx_HAL_Driver/Src/stm32h7xx_hal_mmc_ex.c **** 
 259:../../Drivers/STM32H7xx_HAL_Driver/Src/stm32h7xx_hal_mmc_ex.c ****     /* Initialize data control register */
 260:../../Drivers/STM32H7xx_HAL_Driver/Src/stm32h7xx_hal_mmc_ex.c ****     hmmc->Instance->DCTRL = 0;
 435              		.loc 1 260 5 is_stmt 1 view .LVU149
 436              		.loc 1 260 27 is_stmt 0 view .LVU150
 437 0046 0021     		movs	r1, #0
 438 0048 D962     		str	r1, [r3, #44]
 261:../../Drivers/STM32H7xx_HAL_Driver/Src/stm32h7xx_hal_mmc_ex.c **** 
 262:../../Drivers/STM32H7xx_HAL_Driver/Src/stm32h7xx_hal_mmc_ex.c ****     hmmc->ErrorCode = HAL_MMC_ERROR_NONE;
 439              		.loc 1 262 5 is_stmt 1 view .LVU151
 440              		.loc 1 262 21 is_stmt 0 view .LVU152
 441 004a 6163     		str	r1, [r4, #52]
 263:../../Drivers/STM32H7xx_HAL_Driver/Src/stm32h7xx_hal_mmc_ex.c **** 
 264:../../Drivers/STM32H7xx_HAL_Driver/Src/stm32h7xx_hal_mmc_ex.c ****     hmmc->State = HAL_MMC_STATE_BUSY;
 442              		.loc 1 264 5 is_stmt 1 view .LVU153
 443              		.loc 1 264 17 is_stmt 0 view .LVU154
 444 004c 0323     		movs	r3, #3
 445 004e 84F83030 		strb	r3, [r4, #48]
 265:../../Drivers/STM32H7xx_HAL_Driver/Src/stm32h7xx_hal_mmc_ex.c **** 
 266:../../Drivers/STM32H7xx_HAL_Driver/Src/stm32h7xx_hal_mmc_ex.c ****     if ((hmmc->MmcCard.CardType) != MMC_HIGH_CAPACITY_CARD)
 446              		.loc 1 266 5 is_stmt 1 view .LVU155
 447              		.loc 1 266 23 is_stmt 0 view .LVU156
 448 0052 A36B     		ldr	r3, [r4, #56]
 449              		.loc 1 266 8 view .LVU157
 450 0054 012B     		cmp	r3, #1
 451 0056 00D0     		beq	.L34
 267:../../Drivers/STM32H7xx_HAL_Driver/Src/stm32h7xx_hal_mmc_ex.c ****     {
ARM GAS  C:\Users\sheld\AppData\Local\Temp\ccyL9JRa.s 			page 14


 268:../../Drivers/STM32H7xx_HAL_Driver/Src/stm32h7xx_hal_mmc_ex.c ****       add *= 512U;
 452              		.loc 1 268 7 is_stmt 1 view .LVU158
 453              		.loc 1 268 11 is_stmt 0 view .LVU159
 454 0058 7602     		lsls	r6, r6, #9
 455              	.LVL32:
 456              	.L34:
 269:../../Drivers/STM32H7xx_HAL_Driver/Src/stm32h7xx_hal_mmc_ex.c ****     }
 270:../../Drivers/STM32H7xx_HAL_Driver/Src/stm32h7xx_hal_mmc_ex.c **** 
 271:../../Drivers/STM32H7xx_HAL_Driver/Src/stm32h7xx_hal_mmc_ex.c ****     /* Configure the MMC DPSM (Data Path State Machine) */
 272:../../Drivers/STM32H7xx_HAL_Driver/Src/stm32h7xx_hal_mmc_ex.c ****     config.DataTimeOut   = SDMMC_DATATIMEOUT;
 457              		.loc 1 272 5 is_stmt 1 view .LVU160
 458              		.loc 1 272 26 is_stmt 0 view .LVU161
 459 005a 4FF0FF33 		mov	r3, #-1
 460 005e 0093     		str	r3, [sp]
 273:../../Drivers/STM32H7xx_HAL_Driver/Src/stm32h7xx_hal_mmc_ex.c ****     config.DataLength    = MMC_BLOCKSIZE * NumberOfBlocks;
 461              		.loc 1 273 5 is_stmt 1 view .LVU162
 462              		.loc 1 273 42 is_stmt 0 view .LVU163
 463 0060 5202     		lsls	r2, r2, #9
 464              	.LVL33:
 465              		.loc 1 273 26 view .LVU164
 466 0062 0192     		str	r2, [sp, #4]
 274:../../Drivers/STM32H7xx_HAL_Driver/Src/stm32h7xx_hal_mmc_ex.c ****     config.DataBlockSize = SDMMC_DATABLOCK_SIZE_512B;
 467              		.loc 1 274 5 is_stmt 1 view .LVU165
 468              		.loc 1 274 26 is_stmt 0 view .LVU166
 469 0064 9023     		movs	r3, #144
 470 0066 0293     		str	r3, [sp, #8]
 275:../../Drivers/STM32H7xx_HAL_Driver/Src/stm32h7xx_hal_mmc_ex.c ****     config.TransferDir   = SDMMC_TRANSFER_DIR_TO_CARD;
 471              		.loc 1 275 5 is_stmt 1 view .LVU167
 472              		.loc 1 275 26 is_stmt 0 view .LVU168
 473 0068 0023     		movs	r3, #0
 474 006a 0393     		str	r3, [sp, #12]
 276:../../Drivers/STM32H7xx_HAL_Driver/Src/stm32h7xx_hal_mmc_ex.c ****     config.TransferMode  = SDMMC_TRANSFER_MODE_BLOCK;
 475              		.loc 1 276 5 is_stmt 1 view .LVU169
 476              		.loc 1 276 26 is_stmt 0 view .LVU170
 477 006c 0493     		str	r3, [sp, #16]
 277:../../Drivers/STM32H7xx_HAL_Driver/Src/stm32h7xx_hal_mmc_ex.c ****     config.DPSM          = SDMMC_DPSM_DISABLE;
 478              		.loc 1 277 5 is_stmt 1 view .LVU171
 479              		.loc 1 277 26 is_stmt 0 view .LVU172
 480 006e 0593     		str	r3, [sp, #20]
 278:../../Drivers/STM32H7xx_HAL_Driver/Src/stm32h7xx_hal_mmc_ex.c ****     (void)SDMMC_ConfigData(hmmc->Instance, &config);
 481              		.loc 1 278 5 is_stmt 1 view .LVU173
 482              		.loc 1 278 11 is_stmt 0 view .LVU174
 483 0070 6946     		mov	r1, sp
 484 0072 2068     		ldr	r0, [r4]
 485 0074 FFF7FEFF 		bl	SDMMC_ConfigData
 486              	.LVL34:
 279:../../Drivers/STM32H7xx_HAL_Driver/Src/stm32h7xx_hal_mmc_ex.c **** 
 280:../../Drivers/STM32H7xx_HAL_Driver/Src/stm32h7xx_hal_mmc_ex.c ****     __SDMMC_CMDTRANS_ENABLE(hmmc->Instance);
 487              		.loc 1 280 5 is_stmt 1 view .LVU175
 488 0078 2268     		ldr	r2, [r4]
 489 007a D368     		ldr	r3, [r2, #12]
 490 007c 43F04003 		orr	r3, r3, #64
 491 0080 D360     		str	r3, [r2, #12]
 281:../../Drivers/STM32H7xx_HAL_Driver/Src/stm32h7xx_hal_mmc_ex.c **** 
 282:../../Drivers/STM32H7xx_HAL_Driver/Src/stm32h7xx_hal_mmc_ex.c ****     hmmc->Instance->IDMACTRL = SDMMC_ENABLE_IDMA_DOUBLE_BUFF0;
 492              		.loc 1 282 5 view .LVU176
 493              		.loc 1 282 9 is_stmt 0 view .LVU177
ARM GAS  C:\Users\sheld\AppData\Local\Temp\ccyL9JRa.s 			page 15


 494 0082 2368     		ldr	r3, [r4]
 495              		.loc 1 282 30 view .LVU178
 496 0084 0322     		movs	r2, #3
 497 0086 1A65     		str	r2, [r3, #80]
 283:../../Drivers/STM32H7xx_HAL_Driver/Src/stm32h7xx_hal_mmc_ex.c **** 
 284:../../Drivers/STM32H7xx_HAL_Driver/Src/stm32h7xx_hal_mmc_ex.c ****     /* Write Blocks in DMA mode */
 285:../../Drivers/STM32H7xx_HAL_Driver/Src/stm32h7xx_hal_mmc_ex.c ****     hmmc->Context = (MMC_CONTEXT_WRITE_MULTIPLE_BLOCK | MMC_CONTEXT_DMA);
 498              		.loc 1 285 5 is_stmt 1 view .LVU179
 499              		.loc 1 285 19 is_stmt 0 view .LVU180
 500 0088 A023     		movs	r3, #160
 501 008a E362     		str	r3, [r4, #44]
 286:../../Drivers/STM32H7xx_HAL_Driver/Src/stm32h7xx_hal_mmc_ex.c **** 
 287:../../Drivers/STM32H7xx_HAL_Driver/Src/stm32h7xx_hal_mmc_ex.c ****     /* Write Multi Block command */
 288:../../Drivers/STM32H7xx_HAL_Driver/Src/stm32h7xx_hal_mmc_ex.c ****     errorstate = SDMMC_CmdWriteMultiBlock(hmmc->Instance, add);
 502              		.loc 1 288 5 is_stmt 1 view .LVU181
 503              		.loc 1 288 18 is_stmt 0 view .LVU182
 504 008c 3146     		mov	r1, r6
 505 008e 2068     		ldr	r0, [r4]
 506 0090 FFF7FEFF 		bl	SDMMC_CmdWriteMultiBlock
 507              	.LVL35:
 289:../../Drivers/STM32H7xx_HAL_Driver/Src/stm32h7xx_hal_mmc_ex.c ****     if (errorstate != HAL_MMC_ERROR_NONE)
 508              		.loc 1 289 5 is_stmt 1 view .LVU183
 509              		.loc 1 289 8 is_stmt 0 view .LVU184
 510 0094 C8B1     		cbz	r0, .L35
 290:../../Drivers/STM32H7xx_HAL_Driver/Src/stm32h7xx_hal_mmc_ex.c ****     {
 291:../../Drivers/STM32H7xx_HAL_Driver/Src/stm32h7xx_hal_mmc_ex.c ****       hmmc->State = HAL_MMC_STATE_READY;
 511              		.loc 1 291 7 is_stmt 1 view .LVU185
 512              		.loc 1 291 19 is_stmt 0 view .LVU186
 513 0096 0123     		movs	r3, #1
 514 0098 84F83030 		strb	r3, [r4, #48]
 292:../../Drivers/STM32H7xx_HAL_Driver/Src/stm32h7xx_hal_mmc_ex.c ****       hmmc->ErrorCode |= errorstate;
 515              		.loc 1 292 7 is_stmt 1 view .LVU187
 516              		.loc 1 292 23 is_stmt 0 view .LVU188
 517 009c 636B     		ldr	r3, [r4, #52]
 518 009e 0343     		orrs	r3, r3, r0
 519 00a0 6363     		str	r3, [r4, #52]
 293:../../Drivers/STM32H7xx_HAL_Driver/Src/stm32h7xx_hal_mmc_ex.c ****       return HAL_ERROR;
 520              		.loc 1 293 7 is_stmt 1 view .LVU189
 521              		.loc 1 293 14 is_stmt 0 view .LVU190
 522 00a2 1AE0     		b	.L27
 523              	.LVL36:
 524              	.L38:
 228:../../Drivers/STM32H7xx_HAL_Driver/Src/stm32h7xx_hal_mmc_ex.c ****       return HAL_ERROR;
 525              		.loc 1 228 7 is_stmt 1 view .LVU191
 228:../../Drivers/STM32H7xx_HAL_Driver/Src/stm32h7xx_hal_mmc_ex.c ****       return HAL_ERROR;
 526              		.loc 1 228 23 is_stmt 0 view .LVU192
 527 00a4 436B     		ldr	r3, [r0, #52]
 528 00a6 43F00073 		orr	r3, r3, #33554432
 529 00aa 4363     		str	r3, [r0, #52]
 229:../../Drivers/STM32H7xx_HAL_Driver/Src/stm32h7xx_hal_mmc_ex.c ****     }
 530              		.loc 1 229 7 is_stmt 1 view .LVU193
 229:../../Drivers/STM32H7xx_HAL_Driver/Src/stm32h7xx_hal_mmc_ex.c ****     }
 531              		.loc 1 229 14 is_stmt 0 view .LVU194
 532 00ac 15E0     		b	.L27
 533              	.L39:
 238:../../Drivers/STM32H7xx_HAL_Driver/Src/stm32h7xx_hal_mmc_ex.c ****         return HAL_ERROR;
 534              		.loc 1 238 9 is_stmt 1 view .LVU195
ARM GAS  C:\Users\sheld\AppData\Local\Temp\ccyL9JRa.s 			page 16


 238:../../Drivers/STM32H7xx_HAL_Driver/Src/stm32h7xx_hal_mmc_ex.c ****         return HAL_ERROR;
 535              		.loc 1 238 25 is_stmt 0 view .LVU196
 536 00ae 436B     		ldr	r3, [r0, #52]
 537 00b0 43F08003 		orr	r3, r3, #128
 538 00b4 4363     		str	r3, [r0, #52]
 239:../../Drivers/STM32H7xx_HAL_Driver/Src/stm32h7xx_hal_mmc_ex.c ****       }
 539              		.loc 1 239 9 is_stmt 1 view .LVU197
 239:../../Drivers/STM32H7xx_HAL_Driver/Src/stm32h7xx_hal_mmc_ex.c ****       }
 540              		.loc 1 239 16 is_stmt 0 view .LVU198
 541 00b6 10E0     		b	.L27
 542              	.L40:
 245:../../Drivers/STM32H7xx_HAL_Driver/Src/stm32h7xx_hal_mmc_ex.c ****         return HAL_ERROR;
 543              		.loc 1 245 9 is_stmt 1 view .LVU199
 245:../../Drivers/STM32H7xx_HAL_Driver/Src/stm32h7xx_hal_mmc_ex.c ****         return HAL_ERROR;
 544              		.loc 1 245 25 is_stmt 0 view .LVU200
 545 00b8 436B     		ldr	r3, [r0, #52]
 546 00ba 43F04003 		orr	r3, r3, #64
 547 00be 4363     		str	r3, [r0, #52]
 246:../../Drivers/STM32H7xx_HAL_Driver/Src/stm32h7xx_hal_mmc_ex.c ****       }
 548              		.loc 1 246 9 is_stmt 1 view .LVU201
 246:../../Drivers/STM32H7xx_HAL_Driver/Src/stm32h7xx_hal_mmc_ex.c ****       }
 549              		.loc 1 246 16 is_stmt 0 view .LVU202
 550 00c0 0BE0     		b	.L27
 551              	.LVL37:
 552              	.L31:
 255:../../Drivers/STM32H7xx_HAL_Driver/Src/stm32h7xx_hal_mmc_ex.c ****       return HAL_ERROR;
 553              		.loc 1 255 7 is_stmt 1 view .LVU203
 255:../../Drivers/STM32H7xx_HAL_Driver/Src/stm32h7xx_hal_mmc_ex.c ****       return HAL_ERROR;
 554              		.loc 1 255 23 is_stmt 0 view .LVU204
 555 00c2 4FF00073 		mov	r3, #33554432
 556 00c6 6363     		str	r3, [r4, #52]
 256:../../Drivers/STM32H7xx_HAL_Driver/Src/stm32h7xx_hal_mmc_ex.c ****     }
 557              		.loc 1 256 7 is_stmt 1 view .LVU205
 256:../../Drivers/STM32H7xx_HAL_Driver/Src/stm32h7xx_hal_mmc_ex.c ****     }
 558              		.loc 1 256 14 is_stmt 0 view .LVU206
 559 00c8 07E0     		b	.L27
 560              	.LVL38:
 561              	.L35:
 294:../../Drivers/STM32H7xx_HAL_Driver/Src/stm32h7xx_hal_mmc_ex.c ****     }
 295:../../Drivers/STM32H7xx_HAL_Driver/Src/stm32h7xx_hal_mmc_ex.c **** 
 296:../../Drivers/STM32H7xx_HAL_Driver/Src/stm32h7xx_hal_mmc_ex.c ****     __HAL_MMC_ENABLE_IT(hmmc, (SDMMC_IT_DCRCFAIL | SDMMC_IT_DTIMEOUT | SDMMC_IT_TXUNDERR | SDMMC_IT
 562              		.loc 1 296 5 is_stmt 1 view .LVU207
 563 00ca 2268     		ldr	r2, [r4]
 564 00cc D16B     		ldr	r1, [r2, #60]
 565 00ce 044B     		ldr	r3, .L41
 566 00d0 0B43     		orrs	r3, r3, r1
 567 00d2 D363     		str	r3, [r2, #60]
 297:../../Drivers/STM32H7xx_HAL_Driver/Src/stm32h7xx_hal_mmc_ex.c ****                                SDMMC_FLAG_IDMATE | SDMMC_FLAG_IDMABTC));
 298:../../Drivers/STM32H7xx_HAL_Driver/Src/stm32h7xx_hal_mmc_ex.c **** 
 299:../../Drivers/STM32H7xx_HAL_Driver/Src/stm32h7xx_hal_mmc_ex.c ****     return HAL_OK;
 568              		.loc 1 299 5 view .LVU208
 569              		.loc 1 299 12 is_stmt 0 view .LVU209
 570 00d4 0025     		movs	r5, #0
 571 00d6 00E0     		b	.L27
 572              	.LVL39:
 573              	.L36:
 300:../../Drivers/STM32H7xx_HAL_Driver/Src/stm32h7xx_hal_mmc_ex.c ****   }
ARM GAS  C:\Users\sheld\AppData\Local\Temp\ccyL9JRa.s 			page 17


 301:../../Drivers/STM32H7xx_HAL_Driver/Src/stm32h7xx_hal_mmc_ex.c ****   else
 302:../../Drivers/STM32H7xx_HAL_Driver/Src/stm32h7xx_hal_mmc_ex.c ****   {
 303:../../Drivers/STM32H7xx_HAL_Driver/Src/stm32h7xx_hal_mmc_ex.c ****     return HAL_BUSY;
 574              		.loc 1 303 12 view .LVU210
 575 00d8 0225     		movs	r5, #2
 576              	.LVL40:
 577              	.L27:
 304:../../Drivers/STM32H7xx_HAL_Driver/Src/stm32h7xx_hal_mmc_ex.c ****   }
 305:../../Drivers/STM32H7xx_HAL_Driver/Src/stm32h7xx_hal_mmc_ex.c **** }
 578              		.loc 1 305 1 view .LVU211
 579 00da 2846     		mov	r0, r5
 580 00dc 07B0     		add	sp, sp, #28
 581              	.LCFI7:
 582              		.cfi_def_cfa_offset 20
 583              		@ sp needed
 584 00de F0BD     		pop	{r4, r5, r6, r7, pc}
 585              	.L42:
 586              		.align	2
 587              	.L41:
 588 00e0 1A010018 		.word	402653466
 589              		.cfi_endproc
 590              	.LFE134:
 592              		.section	.text.HAL_MMCEx_ChangeDMABuffer,"ax",%progbits
 593              		.align	1
 594              		.global	HAL_MMCEx_ChangeDMABuffer
 595              		.syntax unified
 596              		.thumb
 597              		.thumb_func
 599              	HAL_MMCEx_ChangeDMABuffer:
 600              	.LVL41:
 601              	.LFB135:
 306:../../Drivers/STM32H7xx_HAL_Driver/Src/stm32h7xx_hal_mmc_ex.c **** 
 307:../../Drivers/STM32H7xx_HAL_Driver/Src/stm32h7xx_hal_mmc_ex.c **** 
 308:../../Drivers/STM32H7xx_HAL_Driver/Src/stm32h7xx_hal_mmc_ex.c **** /**
 309:../../Drivers/STM32H7xx_HAL_Driver/Src/stm32h7xx_hal_mmc_ex.c ****   * @brief  Change the DMA Buffer0 or Buffer1 address on the fly.
 310:../../Drivers/STM32H7xx_HAL_Driver/Src/stm32h7xx_hal_mmc_ex.c ****   * @param  hmmc:           pointer to a MMC_HandleTypeDef structure.
 311:../../Drivers/STM32H7xx_HAL_Driver/Src/stm32h7xx_hal_mmc_ex.c ****   * @param  Buffer:        the buffer to be changed, This parameter can be one of
 312:../../Drivers/STM32H7xx_HAL_Driver/Src/stm32h7xx_hal_mmc_ex.c ****   *                        the following values: MMC_DMA_BUFFER0 or MMC_DMA_BUFFER1
 313:../../Drivers/STM32H7xx_HAL_Driver/Src/stm32h7xx_hal_mmc_ex.c ****   * @param  pDataBuffer:   The new address
 314:../../Drivers/STM32H7xx_HAL_Driver/Src/stm32h7xx_hal_mmc_ex.c ****   * @note   The BUFFER0 address can be changed only when the current transfer use
 315:../../Drivers/STM32H7xx_HAL_Driver/Src/stm32h7xx_hal_mmc_ex.c ****   *         BUFFER1 and the BUFFER1 address can be changed only when the current
 316:../../Drivers/STM32H7xx_HAL_Driver/Src/stm32h7xx_hal_mmc_ex.c ****   *         transfer use BUFFER0.
 317:../../Drivers/STM32H7xx_HAL_Driver/Src/stm32h7xx_hal_mmc_ex.c ****   * @retval HAL status
 318:../../Drivers/STM32H7xx_HAL_Driver/Src/stm32h7xx_hal_mmc_ex.c ****   */
 319:../../Drivers/STM32H7xx_HAL_Driver/Src/stm32h7xx_hal_mmc_ex.c **** HAL_StatusTypeDef HAL_MMCEx_ChangeDMABuffer(MMC_HandleTypeDef *hmmc, HAL_MMCEx_DMABuffer_MemoryType
 320:../../Drivers/STM32H7xx_HAL_Driver/Src/stm32h7xx_hal_mmc_ex.c ****                                             uint32_t *pDataBuffer)
 321:../../Drivers/STM32H7xx_HAL_Driver/Src/stm32h7xx_hal_mmc_ex.c **** {
 602              		.loc 1 321 1 is_stmt 1 view -0
 603              		.cfi_startproc
 604              		@ args = 0, pretend = 0, frame = 0
 605              		@ frame_needed = 0, uses_anonymous_args = 0
 606              		@ link register save eliminated.
 322:../../Drivers/STM32H7xx_HAL_Driver/Src/stm32h7xx_hal_mmc_ex.c ****   if (Buffer == MMC_DMA_BUFFER0)
 607              		.loc 1 322 3 view .LVU213
 608              		.loc 1 322 6 is_stmt 0 view .LVU214
 609 0000 19B9     		cbnz	r1, .L44
 323:../../Drivers/STM32H7xx_HAL_Driver/Src/stm32h7xx_hal_mmc_ex.c ****   {
ARM GAS  C:\Users\sheld\AppData\Local\Temp\ccyL9JRa.s 			page 18


 324:../../Drivers/STM32H7xx_HAL_Driver/Src/stm32h7xx_hal_mmc_ex.c ****     /* change the buffer0 address */
 325:../../Drivers/STM32H7xx_HAL_Driver/Src/stm32h7xx_hal_mmc_ex.c ****     hmmc->Instance->IDMABASE0 = (uint32_t)pDataBuffer;
 610              		.loc 1 325 5 is_stmt 1 view .LVU215
 611              		.loc 1 325 9 is_stmt 0 view .LVU216
 612 0002 0368     		ldr	r3, [r0]
 613              		.loc 1 325 31 view .LVU217
 614 0004 9A65     		str	r2, [r3, #88]
 615              	.L45:
 326:../../Drivers/STM32H7xx_HAL_Driver/Src/stm32h7xx_hal_mmc_ex.c ****   }
 327:../../Drivers/STM32H7xx_HAL_Driver/Src/stm32h7xx_hal_mmc_ex.c ****   else
 328:../../Drivers/STM32H7xx_HAL_Driver/Src/stm32h7xx_hal_mmc_ex.c ****   {
 329:../../Drivers/STM32H7xx_HAL_Driver/Src/stm32h7xx_hal_mmc_ex.c ****     /* change the memory1 address */
 330:../../Drivers/STM32H7xx_HAL_Driver/Src/stm32h7xx_hal_mmc_ex.c ****     hmmc->Instance->IDMABASE1 = (uint32_t)pDataBuffer;
 331:../../Drivers/STM32H7xx_HAL_Driver/Src/stm32h7xx_hal_mmc_ex.c ****   }
 332:../../Drivers/STM32H7xx_HAL_Driver/Src/stm32h7xx_hal_mmc_ex.c **** 
 333:../../Drivers/STM32H7xx_HAL_Driver/Src/stm32h7xx_hal_mmc_ex.c ****   return HAL_OK;
 616              		.loc 1 333 3 is_stmt 1 view .LVU218
 334:../../Drivers/STM32H7xx_HAL_Driver/Src/stm32h7xx_hal_mmc_ex.c **** }
 617              		.loc 1 334 1 is_stmt 0 view .LVU219
 618 0006 0020     		movs	r0, #0
 619              	.LVL42:
 620              		.loc 1 334 1 view .LVU220
 621 0008 7047     		bx	lr
 622              	.LVL43:
 623              	.L44:
 330:../../Drivers/STM32H7xx_HAL_Driver/Src/stm32h7xx_hal_mmc_ex.c ****   }
 624              		.loc 1 330 5 is_stmt 1 view .LVU221
 330:../../Drivers/STM32H7xx_HAL_Driver/Src/stm32h7xx_hal_mmc_ex.c ****   }
 625              		.loc 1 330 9 is_stmt 0 view .LVU222
 626 000a 0368     		ldr	r3, [r0]
 330:../../Drivers/STM32H7xx_HAL_Driver/Src/stm32h7xx_hal_mmc_ex.c ****   }
 627              		.loc 1 330 31 view .LVU223
 628 000c DA65     		str	r2, [r3, #92]
 629 000e FAE7     		b	.L45
 630              		.cfi_endproc
 631              	.LFE135:
 633              		.text
 634              	.Letext0:
 635              		.file 2 "c:\\projects\\rtos_projects\\tools\\gcc-arm-none-eabi-10.3-2021.10\\arm-none-eabi\\includ
 636              		.file 3 "c:\\projects\\rtos_projects\\tools\\gcc-arm-none-eabi-10.3-2021.10\\arm-none-eabi\\includ
 637              		.file 4 "../../Drivers/CMSIS/Device/ST/STM32H7xx/Include/stm32h745xx.h"
 638              		.file 5 "../../Drivers/STM32H7xx_HAL_Driver/Inc/stm32h7xx_hal_def.h"
 639              		.file 6 "../../Drivers/STM32H7xx_HAL_Driver/Inc/stm32h7xx_ll_sdmmc.h"
 640              		.file 7 "../../Drivers/STM32H7xx_HAL_Driver/Inc/stm32h7xx_hal_mmc.h"
 641              		.file 8 "../../Drivers/STM32H7xx_HAL_Driver/Inc/stm32h7xx_hal_mmc_ex.h"
ARM GAS  C:\Users\sheld\AppData\Local\Temp\ccyL9JRa.s 			page 19

